target datalayout = "e-m:e-p270:32:32-p271:32:32-p272:64:64-i64:64-i128:128-f80:128-n8:16:32:64-S128"
target triple = "x86_64-pc-linux-gnu"

%struct.bignum_st = type { ptr, i32, i32, i32, i32 }

@.str = private unnamed_addr constant [30 x i8] c"../openssl/crypto/bn/bn_mod.c\00", align 1
@__func__.BN_mod_sub_quick = private unnamed_addr constant [17 x i8] c"BN_mod_sub_quick\00", align 1

; Function Attrs: nounwind uwtable
define i32 @BN_mod_sub_quick(ptr noundef %0, ptr noundef %1, ptr noundef %2, ptr noundef %3) #0 {
  %5 = alloca i32, align 4
  %6 = alloca ptr, align 8
  %7 = alloca ptr, align 8
  %8 = alloca ptr, align 8
  %9 = alloca ptr, align 8
  store ptr %0, ptr %6, align 8, !tbaa !3
  store ptr %1, ptr %7, align 8, !tbaa !3
  store ptr %2, ptr %8, align 8, !tbaa !3
  store ptr %3, ptr %9, align 8, !tbaa !3
  %10 = load ptr, ptr %6, align 8, !tbaa !3
  %11 = load ptr, ptr %9, align 8, !tbaa !3
  %12 = icmp eq ptr %10, %11
  br i1 %12, label %13, label %14

13:                                               ; preds = %4
  call void @ERR_new()
  call void @ERR_set_debug(ptr noundef @.str, i32 noundef 194, ptr noundef @__func__.BN_mod_sub_quick)
  call void (i32, i32, ptr, ...) @ERR_set_error(i32 noundef 3, i32 noundef 524550, ptr noundef null)
  store i32 0, ptr %5, align 4
  br label %32

14:                                               ; preds = %4
  %15 = load ptr, ptr %6, align 8, !tbaa !3
  %16 = load ptr, ptr %7, align 8, !tbaa !3
  %17 = load ptr, ptr %8, align 8, !tbaa !3
  %18 = call i32 @BN_sub(ptr noundef %15, ptr noundef %16, ptr noundef %17)
  %19 = icmp ne i32 %18, 0
  br i1 %19, label %21, label %20

20:                                               ; preds = %14
  store i32 0, ptr %5, align 4
  br label %32

21:                                               ; preds = %14
  %22 = load ptr, ptr %6, align 8, !tbaa !3
  %23 = getelementptr inbounds nuw %struct.bignum_st, ptr %22, i32 0, i32 3
  %24 = load i32, ptr %23, align 8, !tbaa !10
  %25 = icmp ne i32 %24, 0
  br i1 %25, label %26, label %31

26:                                               ; preds = %21
  %27 = load ptr, ptr %6, align 8, !tbaa !3
  %28 = load ptr, ptr %6, align 8, !tbaa !3
  %29 = load ptr, ptr %9, align 8, !tbaa !3
  %30 = call i32 @BN_add(ptr noundef %27, ptr noundef %28, ptr noundef %29)
  store i32 %30, ptr %5, align 4
  br label %32

31:                                               ; preds = %21
  store i32 1, ptr %5, align 4
  br label %32

32:                                               ; preds = %31, %26, %20, %13
  %33 = load i32, ptr %5, align 4
  ret i32 %33
}